target datalayout = "e-m:e-p270:32:32-p271:32:32-p272:64:64-i64:64-i128:128-f80:128-n8:16:32:64-S128"
target triple = "x86_64-pc-linux-gnu"

%struct.anon = type { i64, double, double, double, double, double, double, double, double, double, double, double }
%struct._generic_SUNMatrix = type { ptr, ptr, ptr }
%struct._SUNMatrixContent_Band = type { i64, i64, i64, i64, i64, i64, ptr, i64, ptr }

@.str.26 = private unnamed_addr constant [19 x i8] c"N_VGetArrayPointer\00", align 1
@stderr = external global ptr, align 8
@.str.76 = private unnamed_addr constant [55 x i8] c"\0ASUNDIALS_ERROR: %s() failed - returned NULL pointer\0A\0A\00", align 1
@.str.77 = private unnamed_addr constant [46 x i8] c"\0ASUNDIALS_ERROR: %s() failed with flag = %d\0A\0A\00", align 1
@.str.78 = private unnamed_addr constant [53 x i8] c"\0AMEMORY_ERROR: %s() failed - returned NULL pointer\0A\0A\00", align 1

; Function Attrs: nounwind uwtable
define internal i32 @check_retval(ptr noundef %0, ptr noundef %1, i32 noundef %2) #0 {
  %4 = alloca i32, align 4
  %5 = alloca ptr, align 8
  %6 = alloca ptr, align 8
  %7 = alloca i32, align 4
  %8 = alloca ptr, align 8
  %9 = alloca i32, align 4
  store ptr %0, ptr %5, align 8, !tbaa !17
  store ptr %1, ptr %6, align 8, !tbaa !32
  store i32 %2, ptr %7, align 4, !tbaa !4
  call void @llvm.lifetime.start.p0(i64 8, ptr %8) #8
  %10 = load i32, ptr %7, align 4, !tbaa !4
  %11 = icmp eq i32 %10, 0
  br i1 %11, label %12, label %19

12:                                               ; preds = %3
  %13 = load ptr, ptr %5, align 8, !tbaa !17
  %14 = icmp eq ptr %13, null
  br i1 %14, label %15, label %19

15:                                               ; preds = %12
  %16 = load ptr, ptr @stderr, align 8, !tbaa !55
  %17 = load ptr, ptr %6, align 8, !tbaa !32
  %18 = call i32 (ptr, ptr, ...) @fprintf(ptr noundef %16, ptr noundef @.str.76, ptr noundef %17) #8
  store i32 1, ptr %4, align 4
  store i32 1, ptr %9, align 4
  br label %47

19:                                               ; preds = %12, %3
  %20 = load i32, ptr %7, align 4, !tbaa !4
  %21 = icmp eq i32 %20, 1
  br i1 %21, label %22, label %34

22:                                               ; preds = %19
  %23 = load ptr, ptr %5, align 8, !tbaa !17
  store ptr %23, ptr %8, align 8, !tbaa !57
  %24 = load ptr, ptr %8, align 8, !tbaa !57
  %25 = load i32, ptr %24, align 4, !tbaa !4
  %26 = icmp slt i32 %25, 0
  br i1 %26, label %27, label %33

27:                                               ; preds = %22
  %28 = load ptr, ptr @stderr, align 8, !tbaa !55
  %29 = load ptr, ptr %6, align 8, !tbaa !32
  %30 = load ptr, ptr %8, align 8, !tbaa !57
  %31 = load i32, ptr %30, align 4, !tbaa !4
  %32 = call i32 (ptr, ptr, ...) @fprintf(ptr noundef %28, ptr noundef @.str.77, ptr noundef %29, i32 noundef %31) #8
  store i32 1, ptr %4, align 4
  store i32 1, ptr %9, align 4
  br label %47

33:                                               ; preds = %22
  br label %45

34:                                               ; preds = %19
  %35 = load i32, ptr %7, align 4, !tbaa !4
  %36 = icmp eq i32 %35, 2
  br i1 %36, label %37, label %44

37:                                               ; preds = %34
  %38 = load ptr, ptr %5, align 8, !tbaa !17
  %39 = icmp eq ptr %38, null
  br i1 %39, label %40, label %44

40:                                               ; preds = %37
  %41 = load ptr, ptr @stderr, align 8, !tbaa !55
  %42 = load ptr, ptr %6, align 8, !tbaa !32
  %43 = call i32 (ptr, ptr, ...) @fprintf(ptr noundef %41, ptr noundef @.str.78, ptr noundef %42) #8
  store i32 1, ptr %4, align 4
  store i32 1, ptr %9, align 4
  br label %47

44:                                               ; preds = %37, %34
  br label %45

45:                                               ; preds = %44, %33
  br label %46

46:                                               ; preds = %45
  store i32 0, ptr %4, align 4
  store i32 1, ptr %9, align 4
  br label %47

47:                                               ; preds = %46, %40, %27, %15
  call void @llvm.lifetime.end.p0(i64 8, ptr %8) #8
  %48 = load i32, ptr %4, align 4
  ret i32 %48
}

; Function Attrs: nounwind uwtable
define internal i32 @ReactionJac(double noundef %0, ptr noundef %1, ptr noundef %2, ptr noundef %3) #0 {
  %5 = alloca i32, align 4
  %6 = alloca double, align 8
  %7 = alloca ptr, align 8
  %8 = alloca ptr, align 8
  %9 = alloca ptr, align 8
  %10 = alloca i64, align 8
  %11 = alloca double, align 8
  %12 = alloca i64, align 8
  %13 = alloca double, align 8
  %14 = alloca double, align 8
  %15 = alloca double, align 8
  %16 = alloca ptr, align 8
  %17 = alloca i32, align 4
  store double %0, ptr %6, align 8, !tbaa !11
  store ptr %1, ptr %7, align 8, !tbaa !15
  store ptr %2, ptr %8, align 8, !tbaa !24
  store ptr %3, ptr %9, align 8, !tbaa !17
  call void @llvm.lifetime.start.p0(i64 8, ptr %10) #8
  %18 = load ptr, ptr %9, align 8, !tbaa !17
  %19 = getelementptr inbounds nuw %struct.anon, ptr %18, i32 0, i32 0
  %20 = load i64, ptr %19, align 8, !tbaa !34
  store i64 %20, ptr %10, align 8, !tbaa !13
  call void @llvm.lifetime.start.p0(i64 8, ptr %11) #8
  %21 = load ptr, ptr %9, align 8, !tbaa !17
  %22 = getelementptr inbounds nuw %struct.anon, ptr %21, i32 0, i32 11
  %23 = load double, ptr %22, align 8, !tbaa !44
  store double %23, ptr %11, align 8, !tbaa !11
  call void @llvm.lifetime.start.p0(i64 8, ptr %12) #8
  call void @llvm.lifetime.start.p0(i64 8, ptr %13) #8
  call void @llvm.lifetime.start.p0(i64 8, ptr %14) #8
  call void @llvm.lifetime.start.p0(i64 8, ptr %15) #8
  call void @llvm.lifetime.start.p0(i64 8, ptr %16) #8
  %24 = load ptr, ptr %7, align 8, !tbaa !15
  %25 = call ptr @N_VGetArrayPointer(ptr noundef %24)
  store ptr %25, ptr %16, align 8, !tbaa !28
  %26 = load ptr, ptr %16, align 8, !tbaa !28
  %27 = call i32 @check_retval(ptr noundef %26, ptr noundef @.str.26, i32 noundef 0)
  %28 = icmp ne i32 %27, 0
  br i1 %28, label %29, label %30

29:                                               ; preds = %4
  store i32 1, ptr %5, align 4
  store i32 1, ptr %17, align 4
  br label %304

30:                                               ; preds = %4
  store i64 1, ptr %12, align 8, !tbaa !13
  br label %31

31:                                               ; preds = %300, %30
  %32 = load i64, ptr %12, align 8, !tbaa !13
  %33 = load i64, ptr %10, align 8, !tbaa !13
  %34 = sub nsw i64 %33, 1
  %35 = icmp slt i64 %32, %34
  br i1 %35, label %36, label %303

36:                                               ; preds = %31
  %37 = load ptr, ptr %16, align 8, !tbaa !28
  %38 = load i64, ptr %12, align 8, !tbaa !13
  %39 = mul nsw i64 3, %38
  %40 = add nsw i64 %39, 0
  %41 = getelementptr inbounds double, ptr %37, i64 %40
  %42 = load double, ptr %41, align 8, !tbaa !11
  store double %42, ptr %13, align 8, !tbaa !11
  %43 = load ptr, ptr %16, align 8, !tbaa !28
  %44 = load i64, ptr %12, align 8, !tbaa !13
  %45 = mul nsw i64 3, %44
  %46 = add nsw i64 %45, 1
  %47 = getelementptr inbounds double, ptr %43, i64 %46
  %48 = load double, ptr %47, align 8, !tbaa !11
  store double %48, ptr %14, align 8, !tbaa !11
  %49 = load ptr, ptr %16, align 8, !tbaa !28
  %50 = load i64, ptr %12, align 8, !tbaa !13
  %51 = mul nsw i64 3, %50
  %52 = add nsw i64 %51, 2
  %53 = getelementptr inbounds double, ptr %49, i64 %52
  %54 = load double, ptr %53, align 8, !tbaa !11
  store double %54, ptr %15, align 8, !tbaa !11
  %55 = load double, ptr %6, align 8, !tbaa !11
  %56 = load double, ptr %13, align 8, !tbaa !11
  %57 = fmul double 2.000000e+00, %56
  %58 = load double, ptr %14, align 8, !tbaa !11
  %59 = load double, ptr %15, align 8, !tbaa !11
  %60 = fadd double %59, 1.000000e+00
  %61 = fneg double %60
  %62 = call double @llvm.fmuladd.f64(double %57, double %58, double %61)
  %63 = load ptr, ptr %8, align 8, !tbaa !24
  %64 = getelementptr inbounds nuw %struct._generic_SUNMatrix, ptr %63, i32 0, i32 0
  %65 = load ptr, ptr %64, align 8, !tbaa !59
  %66 = getelementptr inbounds nuw %struct._SUNMatrixContent_Band, ptr %65, i32 0, i32 8
  %67 = load ptr, ptr %66, align 8, !tbaa !62
  %68 = load i64, ptr %12, align 8, !tbaa !13
  %69 = mul nsw i64 3, %68
  %70 = add nsw i64 %69, 0
  %71 = getelementptr inbounds ptr, ptr %67, i64 %70
  %72 = load ptr, ptr %71, align 8, !tbaa !28
  %73 = load i64, ptr %12, align 8, !tbaa !13
  %74 = mul nsw i64 3, %73
  %75 = add nsw i64 %74, 0
  %76 = load i64, ptr %12, align 8, !tbaa !13
  %77 = mul nsw i64 3, %76
  %78 = add nsw i64 %77, 0
  %79 = sub nsw i64 %75, %78
  %80 = load ptr, ptr %8, align 8, !tbaa !24
  %81 = getelementptr inbounds nuw %struct._generic_SUNMatrix, ptr %80, i32 0, i32 0
  %82 = load ptr, ptr %81, align 8, !tbaa !59
  %83 = getelementptr inbounds nuw %struct._SUNMatrixContent_Band, ptr %82, i32 0, i32 5
  %84 = load i64, ptr %83, align 8, !tbaa !64
  %85 = add nsw i64 %79, %84
  %86 = getelementptr inbounds double, ptr %72, i64 %85
  %87 = load double, ptr %86, align 8, !tbaa !11
  %88 = call double @llvm.fmuladd.f64(double %55, double %62, double %87)
  store double %88, ptr %86, align 8, !tbaa !11
  %89 = load double, ptr %6, align 8, !tbaa !11
  %90 = load double, ptr %15, align 8, !tbaa !11
  %91 = load double, ptr %13, align 8, !tbaa !11
  %92 = fmul double 2.000000e+00, %91
  %93 = load double, ptr %14, align 8, !tbaa !11
  %94 = fneg double %92
  %95 = call double @llvm.fmuladd.f64(double %94, double %93, double %90)
  %96 = load ptr, ptr %8, align 8, !tbaa !24
  %97 = getelementptr inbounds nuw %struct._generic_SUNMatrix, ptr %96, i32 0, i32 0
  %98 = load ptr, ptr %97, align 8, !tbaa !59
  %99 = getelementptr inbounds nuw %struct._SUNMatrixContent_Band, ptr %98, i32 0, i32 8
  %100 = load ptr, ptr %99, align 8, !tbaa !62
  %101 = load i64, ptr %12, align 8, !tbaa !13
  %102 = mul nsw i64 3, %101
  %103 = add nsw i64 %102, 0
  %104 = getelementptr inbounds ptr, ptr %100, i64 %103
  %105 = load ptr, ptr %104, align 8, !tbaa !28
  %106 = load i64, ptr %12, align 8, !tbaa !13
  %107 = mul nsw i64 3, %106
  %108 = add nsw i64 %107, 1
  %109 = load i64, ptr %12, align 8, !tbaa !13
  %110 = mul nsw i64 3, %109
  %111 = add nsw i64 %110, 0
  %112 = sub nsw i64 %108, %111
  %113 = load ptr, ptr %8, align 8, !tbaa !24
  %114 = getelementptr inbounds nuw %struct._generic_SUNMatrix, ptr %113, i32 0, i32 0
  %115 = load ptr, ptr %114, align 8, !tbaa !59
  %116 = getelementptr inbounds nuw %struct._SUNMatrixContent_Band, ptr %115, i32 0, i32 5
  %117 = load i64, ptr %116, align 8, !tbaa !64
  %118 = add nsw i64 %112, %117
  %119 = getelementptr inbounds double, ptr %105, i64 %118
  %120 = load double, ptr %119, align 8, !tbaa !11
  %121 = call double @llvm.fmuladd.f64(double %89, double %95, double %120)
  store double %121, ptr %119, align 8, !tbaa !11
  %122 = load double, ptr %6, align 8, !tbaa !11
  %123 = load double, ptr %15, align 8, !tbaa !11
  %124 = fneg double %123
  %125 = load ptr, ptr %8, align 8, !tbaa !24
  %126 = getelementptr inbounds nuw %struct._generic_SUNMatrix, ptr %125, i32 0, i32 0
  %127 = load ptr, ptr %126, align 8, !tbaa !59
  %128 = getelementptr inbounds nuw %struct._SUNMatrixContent_Band, ptr %127, i32 0, i32 8
  %129 = load ptr, ptr %128, align 8, !tbaa !62
  %130 = load i64, ptr %12, align 8, !tbaa !13
  %131 = mul nsw i64 3, %130
  %132 = add nsw i64 %131, 0
  %133 = getelementptr inbounds ptr, ptr %129, i64 %132
  %134 = load ptr, ptr %133, align 8, !tbaa !28
  %135 = load i64, ptr %12, align 8, !tbaa !13
  %136 = mul nsw i64 3, %135
  %137 = add nsw i64 %136, 2
  %138 = load i64, ptr %12, align 8, !tbaa !13
  %139 = mul nsw i64 3, %138
  %140 = add nsw i64 %139, 0
  %141 = sub nsw i64 %137, %140
  %142 = load ptr, ptr %8, align 8, !tbaa !24
  %143 = getelementptr inbounds nuw %struct._generic_SUNMatrix, ptr %142, i32 0, i32 0
  %144 = load ptr, ptr %143, align 8, !tbaa !59
  %145 = getelementptr inbounds nuw %struct._SUNMatrixContent_Band, ptr %144, i32 0, i32 5
  %146 = load i64, ptr %145, align 8, !tbaa !64
  %147 = add nsw i64 %141, %146
  %148 = getelementptr inbounds double, ptr %134, i64 %147
  %149 = load double, ptr %148, align 8, !tbaa !11
  %150 = call double @llvm.fmuladd.f64(double %122, double %124, double %149)
  store double %150, ptr %148, align 8, !tbaa !11
  %151 = load double, ptr %6, align 8, !tbaa !11
  %152 = load double, ptr %13, align 8, !tbaa !11
  %153 = load double, ptr %13, align 8, !tbaa !11
  %154 = fmul double %152, %153
  %155 = load ptr, ptr %8, align 8, !tbaa !24
  %156 = getelementptr inbounds nuw %struct._generic_SUNMatrix, ptr %155, i32 0, i32 0
  %157 = load ptr, ptr %156, align 8, !tbaa !59
  %158 = getelementptr inbounds nuw %struct._SUNMatrixContent_Band, ptr %157, i32 0, i32 8
  %159 = load ptr, ptr %158, align 8, !tbaa !62
  %160 = load i64, ptr %12, align 8, !tbaa !13
  %161 = mul nsw i64 3, %160
  %162 = add nsw i64 %161, 1
  %163 = getelementptr inbounds ptr, ptr %159, i64 %162
  %164 = load ptr, ptr %163, align 8, !tbaa !28
  %165 = load i64, ptr %12, align 8, !tbaa !13
  %166 = mul nsw i64 3, %165
  %167 = add nsw i64 %166, 0
  %168 = load i64, ptr %12, align 8, !tbaa !13
  %169 = mul nsw i64 3, %168
  %170 = add nsw i64 %169, 1
  %171 = sub nsw i64 %167, %170
  %172 = load ptr, ptr %8, align 8, !tbaa !24
  %173 = getelementptr inbounds nuw %struct._generic_SUNMatrix, ptr %172, i32 0, i32 0
  %174 = load ptr, ptr %173, align 8, !tbaa !59
  %175 = getelementptr inbounds nuw %struct._SUNMatrixContent_Band, ptr %174, i32 0, i32 5
  %176 = load i64, ptr %175, align 8, !tbaa !64
  %177 = add nsw i64 %171, %176
  %178 = getelementptr inbounds double, ptr %164, i64 %177
  %179 = load double, ptr %178, align 8, !tbaa !11
  %180 = call double @llvm.fmuladd.f64(double %151, double %154, double %179)
  store double %180, ptr %178, align 8, !tbaa !11
  %181 = load double, ptr %6, align 8, !tbaa !11
  %182 = load double, ptr %13, align 8, !tbaa !11
  %183 = fneg double %182
  %184 = load double, ptr %13, align 8, !tbaa !11
  %185 = fmul double %183, %184
  %186 = load ptr, ptr %8, align 8, !tbaa !24
  %187 = getelementptr inbounds nuw %struct._generic_SUNMatrix, ptr %186, i32 0, i32 0
  %188 = load ptr, ptr %187, align 8, !tbaa !59
  %189 = getelementptr inbounds nuw %struct._SUNMatrixContent_Band, ptr %188, i32 0, i32 8
  %190 = load ptr, ptr %189, align 8, !tbaa !62
  %191 = load i64, ptr %12, align 8, !tbaa !13
  %192 = mul nsw i64 3, %191
  %193 = add nsw i64 %192, 1
  %194 = getelementptr inbounds ptr, ptr %190, i64 %193
  %195 = load ptr, ptr %194, align 8, !tbaa !28
  %196 = load i64, ptr %12, align 8, !tbaa !13
  %197 = mul nsw i64 3, %196
  %198 = add nsw i64 %197, 1
  %199 = load i64, ptr %12, align 8, !tbaa !13
  %200 = mul nsw i64 3, %199
  %201 = add nsw i64 %200, 1
  %202 = sub nsw i64 %198, %201
  %203 = load ptr, ptr %8, align 8, !tbaa !24
  %204 = getelementptr inbounds nuw %struct._generic_SUNMatrix, ptr %203, i32 0, i32 0
  %205 = load ptr, ptr %204, align 8, !tbaa !59
  %206 = getelementptr inbounds nuw %struct._SUNMatrixContent_Band, ptr %205, i32 0, i32 5
  %207 = load i64, ptr %206, align 8, !tbaa !64
  %208 = add nsw i64 %202, %207
  %209 = getelementptr inbounds double, ptr %195, i64 %208
  %210 = load double, ptr %209, align 8, !tbaa !11
  %211 = call double @llvm.fmuladd.f64(double %181, double %185, double %210)
  store double %211, ptr %209, align 8, !tbaa !11
  %212 = load double, ptr %6, align 8, !tbaa !11
  %213 = load double, ptr %13, align 8, !tbaa !11
  %214 = fneg double %213
  %215 = load ptr, ptr %8, align 8, !tbaa !24
  %216 = getelementptr inbounds nuw %struct._generic_SUNMatrix, ptr %215, i32 0, i32 0
  %217 = load ptr, ptr %216, align 8, !tbaa !59
  %218 = getelementptr inbounds nuw %struct._SUNMatrixContent_Band, ptr %217, i32 0, i32 8
  %219 = load ptr, ptr %218, align 8, !tbaa !62
  %220 = load i64, ptr %12, align 8, !tbaa !13
  %221 = mul nsw i64 3, %220
  %222 = add nsw i64 %221, 2
  %223 = getelementptr inbounds ptr, ptr %219, i64 %222
  %224 = load ptr, ptr %223, align 8, !tbaa !28
  %225 = load i64, ptr %12, align 8, !tbaa !13
  %226 = mul nsw i64 3, %225
  %227 = add nsw i64 %226, 0
  %228 = load i64, ptr %12, align 8, !tbaa !13
  %229 = mul nsw i64 3, %228
  %230 = add nsw i64 %229, 2
  %231 = sub nsw i64 %227, %230
  %232 = load ptr, ptr %8, align 8, !tbaa !24
  %233 = getelementptr inbounds nuw %struct._generic_SUNMatrix, ptr %232, i32 0, i32 0
  %234 = load ptr, ptr %233, align 8, !tbaa !59
  %235 = getelementptr inbounds nuw %struct._SUNMatrixContent_Band, ptr %234, i32 0, i32 5
  %236 = load i64, ptr %235, align 8, !tbaa !64
  %237 = add nsw i64 %231, %236
  %238 = getelementptr inbounds double, ptr %224, i64 %237
  %239 = load double, ptr %238, align 8, !tbaa !11
  %240 = call double @llvm.fmuladd.f64(double %212, double %214, double %239)
  store double %240, ptr %238, align 8, !tbaa !11
  %241 = load double, ptr %6, align 8, !tbaa !11
  %242 = load double, ptr %13, align 8, !tbaa !11
  %243 = load ptr, ptr %8, align 8, !tbaa !24
  %244 = getelementptr inbounds nuw %struct._generic_SUNMatrix, ptr %243, i32 0, i32 0
  %245 = load ptr, ptr %244, align 8, !tbaa !59
  %246 = getelementptr inbounds nuw %struct._SUNMatrixContent_Band, ptr %245, i32 0, i32 8
  %247 = load ptr, ptr %246, align 8, !tbaa !62
  %248 = load i64, ptr %12, align 8, !tbaa !13
  %249 = mul nsw i64 3, %248
  %250 = add nsw i64 %249, 2
  %251 = getelementptr inbounds ptr, ptr %247, i64 %250
  %252 = load ptr, ptr %251, align 8, !tbaa !28
  %253 = load i64, ptr %12, align 8, !tbaa !13
  %254 = mul nsw i64 3, %253
  %255 = add nsw i64 %254, 1
  %256 = load i64, ptr %12, align 8, !tbaa !13
  %257 = mul nsw i64 3, %256
  %258 = add nsw i64 %257, 2
  %259 = sub nsw i64 %255, %258
  %260 = load ptr, ptr %8, align 8, !tbaa !24
  %261 = getelementptr inbounds nuw %struct._generic_SUNMatrix, ptr %260, i32 0, i32 0
  %262 = load ptr, ptr %261, align 8, !tbaa !59
  %263 = getelementptr inbounds nuw %struct._SUNMatrixContent_Band, ptr %262, i32 0, i32 5
  %264 = load i64, ptr %263, align 8, !tbaa !64
  %265 = add nsw i64 %259, %264
  %266 = getelementptr inbounds double, ptr %252, i64 %265
  %267 = load double, ptr %266, align 8, !tbaa !11
  %268 = call double @llvm.fmuladd.f64(double %241, double %242, double %267)
  store double %268, ptr %266, align 8, !tbaa !11
  %269 = load double, ptr %6, align 8, !tbaa !11
  %270 = load double, ptr %11, align 8, !tbaa !11
  %271 = fdiv double -1.000000e+00, %270
  %272 = load double, ptr %13, align 8, !tbaa !11
  %273 = fsub double %271, %272
  %274 = load ptr, ptr %8, align 8, !tbaa !24
  %275 = getelementptr inbounds nuw %struct._generic_SUNMatrix, ptr %274, i32 0, i32 0
  %276 = load ptr, ptr %275, align 8, !tbaa !59
  %277 = getelementptr inbounds nuw %struct._SUNMatrixContent_Band, ptr %276, i32 0, i32 8
  %278 = load ptr, ptr %277, align 8, !tbaa !62
  %279 = load i64, ptr %12, align 8, !tbaa !13
  %280 = mul nsw i64 3, %279
  %281 = add nsw i64 %280, 2
  %282 = getelementptr inbounds ptr, ptr %278, i64 %281
  %283 = load ptr, ptr %282, align 8, !tbaa !28
  %284 = load i64, ptr %12, align 8, !tbaa !13
  %285 = mul nsw i64 3, %284
  %286 = add nsw i64 %285, 2
  %287 = load i64, ptr %12, align 8, !tbaa !13
  %288 = mul nsw i64 3, %287
  %289 = add nsw i64 %288, 2
  %290 = sub nsw i64 %286, %289
  %291 = load ptr, ptr %8, align 8, !tbaa !24
  %292 = getelementptr inbounds nuw %struct._generic_SUNMatrix, ptr %291, i32 0, i32 0
  %293 = load ptr, ptr %292, align 8, !tbaa !59
  %294 = getelementptr inbounds nuw %struct._SUNMatrixContent_Band, ptr %293, i32 0, i32 5
  %295 = load i64, ptr %294, align 8, !tbaa !64
  %296 = add nsw i64 %290, %295
  %297 = getelementptr inbounds double, ptr %283, i64 %296
  %298 = load double, ptr %297, align 8, !tbaa !11
  %299 = call double @llvm.fmuladd.f64(double %269, double %273, double %298)
  store double %299, ptr %297, align 8, !tbaa !11
  br label %300

300:                                              ; preds = %36
  %301 = load i64, ptr %12, align 8, !tbaa !13
  %302 = add nsw i64 %301, 1
  store i64 %302, ptr %12, align 8, !tbaa !13
  br label %31

303:                                              ; preds = %31
  store i32 0, ptr %5, align 4
  store i32 1, ptr %17, align 4
  br label %304

304:                                              ; preds = %303, %29
  call void @llvm.lifetime.end.p0(i64 8, ptr %16) #8
  call void @llvm.lifetime.end.p0(i64 8, ptr %15) #8
  call void @llvm.lifetime.end.p0(i64 8, ptr %14) #8
  call void @llvm.lifetime.end.p0(i64 8, ptr %13) #8
  call void @llvm.lifetime.end.p0(i64 8, ptr %12) #8
  call void @llvm.lifetime.end.p0(i64 8, ptr %11) #8
  call void @llvm.lifetime.end.p0(i64 8, ptr %10) #8
  %305 = load i32, ptr %5, align 4
  ret i32 %305
}