; Function Attrs: nounwind uwtable
define internal fastcc void @ReactionJac(ptr noundef %0, ptr noundef readonly captures(none) %1, i64 %.0.val, double %.88.val) unnamed_addr #0 {
  %3 = tail call ptr @N_VGetArrayPointer(ptr noundef %0) #16
  %4 = icmp eq ptr %3, null
  br i1 %4, label %check_retval.exit.thread, label %check_retval.exit.preheader

check_retval.exit.preheader:                      ; preds = %2
  %5 = icmp sgt i64 %.0.val, 2
  br i1 %5, label %.lr.ph, label %.loopexit

.lr.ph:                                           ; preds = %check_retval.exit.preheader
  %6 = load ptr, ptr %1, align 8, !tbaa !45
  %7 = getelementptr inbounds nuw i8, ptr %6, i64 64
  %8 = load ptr, ptr %7, align 8, !tbaa !48
  %9 = getelementptr inbounds nuw i8, ptr %6, i64 40
  %10 = load i64, ptr %9, align 8, !tbaa !50
  %11 = fdiv double -1.000000e+00, %.88.val
  %12 = add nsw i64 %.0.val, -2
  br label %check_retval.exit

check_retval.exit.thread:                         ; preds = %2
  %13 = load ptr, ptr @stderr, align 8, !tbaa !12
  %14 = tail call i32 (ptr, ptr, ...) @fprintf(ptr noundef %13, ptr noundef nonnull @.str.76, ptr noundef nonnull @.str.26) #17
  br label %.loopexit

check_retval.exit:                                ; preds = %.lr.ph, %check_retval.exit
  %.0763 = phi i64 [ 1, %.lr.ph ], [ %62, %check_retval.exit ]
  %15 = mul nuw nsw i64 %.0763, 3
  %16 = getelementptr inbounds nuw double, ptr %3, i64 %15
  %17 = load double, ptr %16, align 8, !tbaa !31
  %18 = add nuw nsw i64 %15, 1
  %19 = getelementptr inbounds nuw double, ptr %3, i64 %18
  %20 = load double, ptr %19, align 8, !tbaa !31
  %21 = add nuw nsw i64 %15, 2
  %22 = getelementptr inbounds nuw double, ptr %3, i64 %21
  %23 = load double, ptr %22, align 8, !tbaa !31
  %24 = fmul double %17, 2.000000e+00
  %25 = fadd double %23, 1.000000e+00
  %26 = fneg double %25
  %27 = tail call double @llvm.fmuladd.f64(double %24, double %20, double %26)
  %28 = getelementptr inbounds nuw ptr, ptr %8, i64 %15
  %29 = load ptr, ptr %28, align 8, !tbaa !37
  %30 = getelementptr inbounds double, ptr %29, i64 %10
  %31 = load double, ptr %30, align 8, !tbaa !31
  %32 = fadd double %27, %31
  store double %32, ptr %30, align 8, !tbaa !31
  %33 = fneg double %24
  %34 = tail call double @llvm.fmuladd.f64(double %33, double %20, double %23)
  %35 = getelementptr i8, ptr %30, i64 8
  %36 = load double, ptr %35, align 8, !tbaa !31
  %37 = fadd double %34, %36
  store double %37, ptr %35, align 8, !tbaa !31
  %38 = getelementptr i8, ptr %30, i64 16
  %39 = load double, ptr %38, align 8, !tbaa !31
  %40 = fsub double %39, %23
  store double %40, ptr %38, align 8, !tbaa !31
  %41 = fmul double %17, %17
  %42 = getelementptr inbounds nuw ptr, ptr %8, i64 %18
  %43 = load ptr, ptr %42, align 8, !tbaa !37
  %44 = getelementptr double, ptr %43, i64 %10
  %45 = getelementptr i8, ptr %44, i64 -8
  %46 = load double, ptr %45, align 8, !tbaa !31
  %47 = fadd double %41, %46
  store double %47, ptr %45, align 8, !tbaa !31
  %48 = load double, ptr %44, align 8, !tbaa !31
  %49 = fsub double %48, %41
  store double %49, ptr %44, align 8, !tbaa !31
  %50 = getelementptr inbounds nuw ptr, ptr %8, i64 %21
  %51 = load ptr, ptr %50, align 8, !tbaa !37
  %52 = getelementptr double, ptr %51, i64 %10
  %53 = getelementptr i8, ptr %52, i64 -16
  %54 = load double, ptr %53, align 8, !tbaa !31
  %55 = fsub double %54, %17
  store double %55, ptr %53, align 8, !tbaa !31
  %56 = getelementptr i8, ptr %52, i64 -8
  %57 = load double, ptr %56, align 8, !tbaa !31
  %58 = fadd double %17, %57
  store double %58, ptr %56, align 8, !tbaa !31
  %59 = fsub double %11, %17
  %60 = load double, ptr %52, align 8, !tbaa !31
  %61 = fadd double %59, %60
  store double %61, ptr %52, align 8, !tbaa !31
  %62 = add nuw nsw i64 %.0763, 1
  %exitcond.not = icmp eq i64 %.0763, %12
  br i1 %exitcond.not, label %.loopexit, label %check_retval.exit

.loopexit:                                        ; preds = %check_retval.exit, %check_retval.exit.preheader, %check_retval.exit.thread
  ret void
}